target datalayout = "e-m:e-p270:32:32-p271:32:32-p272:64:64-i64:64-i128:128-f80:128-n8:16:32:64-S128"
target triple = "x86_64-pc-linux-gnu"

%struct.ossl_algorithm_st = type { ptr, ptr, ptr, ptr }

@fake_rsa_sig_algs = internal constant [2 x %struct.ossl_algorithm_st] [%struct.ossl_algorithm_st { ptr @.str.15, ptr @.str.16, ptr @fake_rsa_sig_funcs, ptr @.str.17 }, %struct.ossl_algorithm_st zeroinitializer], align 16
@fake_rsa_keymgmt_algs = internal constant [2 x %struct.ossl_algorithm_st] [%struct.ossl_algorithm_st { ptr @.str.15, ptr @.str.16, ptr @fake_rsa_keymgmt_funcs, ptr @.str.29 }, %struct.ossl_algorithm_st zeroinitializer], align 16
@fake_rsa_store_algs = internal constant [2 x %struct.ossl_algorithm_st] [%struct.ossl_algorithm_st { ptr @.str.40, ptr @.str.16, ptr @fake_rsa_store_funcs, ptr null }, %struct.ossl_algorithm_st zeroinitializer], align 16

; Function Attrs: nounwind uwtable
define internal ptr @fake_rsa_query(ptr noundef %0, i32 noundef %1, ptr noundef %2) #0 {
  %4 = alloca ptr, align 8
  %5 = alloca ptr, align 8
  %6 = alloca i32, align 4
  %7 = alloca ptr, align 8
  store ptr %0, ptr %5, align 8, !tbaa !19
  store i32 %1, ptr %6, align 4, !tbaa !4
  store ptr %2, ptr %7, align 8, !tbaa !20
  %8 = load ptr, ptr %7, align 8, !tbaa !20
  store i32 0, ptr %8, align 4, !tbaa !4
  %9 = load i32, ptr %6, align 4, !tbaa !4
  switch i32 %9, label %13 [
    i32 12, label %10
    i32 10, label %11
    i32 22, label %12
  ]

10:                                               ; preds = %3
  store ptr @fake_rsa_sig_algs, ptr %4, align 8
  br label %14

11:                                               ; preds = %3
  store ptr @fake_rsa_keymgmt_algs, ptr %4, align 8
  br label %14

12:                                               ; preds = %3
  store ptr @fake_rsa_store_algs, ptr %4, align 8
  br label %14

13:                                               ; preds = %3
  store ptr null, ptr %4, align 8
  br label %14

14:                                               ; preds = %13, %12, %11, %10
  %15 = load ptr, ptr %4, align 8
  ret ptr %15
}