; Function Attrs: mustprogress nofree norecurse nosync nounwind willreturn memory(argmem: write) uwtable
define internal noundef ptr @fake_rsa_query(ptr readnone captures(none) %0, i32 noundef %1, ptr noundef writeonly captures(none) initializes((0, 4)) %2) #5 {
  store i32 0, ptr %2, align 4, !tbaa !10
  switch i32 %1, label %6 [
    i32 12, label %7
    i32 10, label %4
    i32 22, label %5
  ]

4:                                                ; preds = %3
  br label %7

5:                                                ; preds = %3
  br label %7

6:                                                ; preds = %3
  br label %7

7:                                                ; preds = %3, %6, %5, %4
  %.0 = phi ptr [ null, %6 ], [ @fake_rsa_store_algs, %5 ], [ @fake_rsa_keymgmt_algs, %4 ], [ @fake_rsa_sig_algs, %3 ]
  ret ptr %.0
}